target datalayout = "e-m:e-p270:32:32-p271:32:32-p272:64:64-i64:64-i128:128-f80:128-n8:16:32:64-S128"
target triple = "x86_64-pc-linux-gnu"

%"class.cvc5::internal::theory::quantifiers::QuantifiersModule" = type { %"class.cvc5::internal::EnvObj", ptr, ptr, ptr, ptr }
%"class.cvc5::internal::EnvObj" = type { ptr, ptr }
%"class.cvc5::internal::NodeTemplate" = type { ptr }

; Function Attrs: mustprogress nounwind uwtable
define linkonce_odr hidden void @_ZN4cvc58internal12NodeTemplateILb0EED2Ev(ptr noundef nonnull align 8 dereferenceable(8) %0) unnamed_addr #5 comdat align 2 {
  %2 = alloca ptr, align 8
  store ptr %0, ptr %2, align 8, !tbaa !25
  ret void
}

; Function Attrs: mustprogress nounwind uwtable
define linkonce_odr hidden void @_ZN4cvc58internal12NodeTemplateILb0EEC2ERKS2_(ptr noundef nonnull align 8 dereferenceable(8) %0, ptr noundef nonnull align 8 dereferenceable(8) %1) unnamed_addr #5 comdat align 2 {
  %3 = alloca ptr, align 8
  %4 = alloca ptr, align 8
  store ptr %0, ptr %3, align 8, !tbaa !25
  store ptr %1, ptr %4, align 8, !tbaa !25
  %5 = load ptr, ptr %3, align 8
  %6 = load ptr, ptr %4, align 8, !tbaa !25
  %7 = getelementptr inbounds nuw %"class.cvc5::internal::NodeTemplate", ptr %6, i32 0, i32 0
  %8 = load ptr, ptr %7, align 8, !tbaa !27
  %9 = getelementptr inbounds nuw %"class.cvc5::internal::NodeTemplate", ptr %5, i32 0, i32 0
  store ptr %8, ptr %9, align 8, !tbaa !27
  ret void
}

; Function Attrs: mustprogress uwtable
define hidden noundef zeroext i1 @_ZNK4cvc58internal6theory11quantifiers17QuantifiersModule11areDisequalENS0_12NodeTemplateILb0EEES5_(ptr noundef nonnull align 8 dereferenceable(48) %0, ptr noundef %1, ptr noundef %2) #4 align 2 personality ptr @__gxx_personality_v0 {
  %4 = alloca ptr, align 8
  %5 = alloca ptr, align 8
  %6 = alloca ptr, align 8
  %7 = alloca %"class.cvc5::internal::NodeTemplate", align 8
  %8 = alloca %"class.cvc5::internal::NodeTemplate", align 8
  %9 = alloca ptr, align 8
  %10 = alloca i32, align 4
  store ptr %0, ptr %4, align 8, !tbaa !3
  store ptr %1, ptr %5, align 8, !tbaa !25
  store ptr %2, ptr %6, align 8, !tbaa !25
  %11 = load ptr, ptr %4, align 8
  %12 = getelementptr inbounds nuw %"class.cvc5::internal::theory::quantifiers::QuantifiersModule", ptr %11, i32 0, i32 1
  %13 = load ptr, ptr %12, align 8, !tbaa !22
  call void @_ZN4cvc58internal12NodeTemplateILb0EEC2ERKS2_(ptr noundef nonnull align 8 dereferenceable(8) %7, ptr noundef nonnull align 8 dereferenceable(8) %1)
  invoke void @_ZN4cvc58internal12NodeTemplateILb0EEC2ERKS2_(ptr noundef nonnull align 8 dereferenceable(8) %8, ptr noundef nonnull align 8 dereferenceable(8) %2)
          to label %14 unwind label %20

14:                                               ; preds = %3
  %15 = load ptr, ptr %13, align 8, !tbaa !18
  %16 = getelementptr inbounds ptr, ptr %15, i64 6
  %17 = load ptr, ptr %16, align 8
  %18 = invoke noundef zeroext i1 %17(ptr noundef nonnull align 8 dereferenceable(160) %13, ptr noundef %7, ptr noundef %8)
          to label %19 unwind label %24

19:                                               ; preds = %14
  call void @_ZN4cvc58internal12NodeTemplateILb0EED2Ev(ptr noundef nonnull align 8 dereferenceable(8) %8) #3
  call void @_ZN4cvc58internal12NodeTemplateILb0EED2Ev(ptr noundef nonnull align 8 dereferenceable(8) %7) #3
  ret i1 %18

20:                                               ; preds = %3
  %21 = landingpad { ptr, i32 }
          cleanup
  %22 = extractvalue { ptr, i32 } %21, 0
  store ptr %22, ptr %9, align 8
  %23 = extractvalue { ptr, i32 } %21, 1
  store i32 %23, ptr %10, align 4
  br label %28

24:                                               ; preds = %14
  %25 = landingpad { ptr, i32 }
          cleanup
  %26 = extractvalue { ptr, i32 } %25, 0
  store ptr %26, ptr %9, align 8
  %27 = extractvalue { ptr, i32 } %25, 1
  store i32 %27, ptr %10, align 4
  call void @_ZN4cvc58internal12NodeTemplateILb0EED2Ev(ptr noundef nonnull align 8 dereferenceable(8) %8) #3
  br label %28

28:                                               ; preds = %24, %20
  call void @_ZN4cvc58internal12NodeTemplateILb0EED2Ev(ptr noundef nonnull align 8 dereferenceable(8) %7) #3
  br label %29

29:                                               ; preds = %28
  %30 = load ptr, ptr %9, align 8
  %31 = load i32, ptr %10, align 4
  %32 = insertvalue { ptr, i32 } poison, ptr %30, 0
  %33 = insertvalue { ptr, i32 } %32, i32 %31, 1
  resume { ptr, i32 } %33
}